; Function Attrs: mustprogress uwtable
define void @_ZN32pxrInternal_v0_24__pxrReserved__13UsdEditTargetC2ERKNS_9TfWeakPtrINS_8SdfLayerEEERKNS_10PcpNodeRefE(ptr noundef nonnull align 8 dereferenceable(72) initializes((0, 16), (48, 53)) %0, ptr noundef nonnull readonly align 8 captures(none) dereferenceable(16) %1, ptr noundef nonnull align 8 dereferenceable(16) %2) unnamed_addr #0 align 2 personality ptr @__gxx_personality_v0 {
  %4 = alloca %"class.pxrInternal_v0_24__pxrReserved__::TfWeakPtr", align 8
  %5 = load ptr, ptr %1, align 8
  store ptr %5, ptr %0, align 8
  %6 = getelementptr inbounds nuw i8, ptr %0, i64 8
  %7 = getelementptr inbounds nuw i8, ptr %1, i64 8
  %8 = load ptr, ptr %7, align 8
  store ptr %8, ptr %6, align 8
  %.not.i.i.i.i = icmp eq ptr %8, null
  br i1 %.not.i.i.i.i, label %_ZN32pxrInternal_v0_24__pxrReserved__9TfWeakPtrINS_8SdfLayerEEC2ERKS2_.exit.thread, label %_ZN32pxrInternal_v0_24__pxrReserved__9TfWeakPtrINS_8SdfLayerEEC2ERKS2_.exit

_ZN32pxrInternal_v0_24__pxrReserved__9TfWeakPtrINS_8SdfLayerEEC2ERKS2_.exit.thread: ; preds = %3
  %9 = load ptr, ptr %1, align 8
  store ptr %9, ptr %4, align 8
  %10 = getelementptr inbounds nuw i8, ptr %4, i64 8
  store ptr null, ptr %10, align 8
  br label %_ZN32pxrInternal_v0_24__pxrReserved__9TfWeakPtrINS_8SdfLayerEEC2ERKS2_.exit8

_ZN32pxrInternal_v0_24__pxrReserved__9TfWeakPtrINS_8SdfLayerEEC2ERKS2_.exit: ; preds = %3
  %11 = getelementptr inbounds nuw i8, ptr %8, i64 8
  %12 = atomicrmw add ptr %11, i32 1 monotonic, align 4
  %.pre = load ptr, ptr %7, align 8
  %13 = load ptr, ptr %1, align 8
  store ptr %13, ptr %4, align 8
  %14 = getelementptr inbounds nuw i8, ptr %4, i64 8
  store ptr %.pre, ptr %14, align 8
  %.not.i.i.i.i7 = icmp eq ptr %.pre, null
  br i1 %.not.i.i.i.i7, label %_ZN32pxrInternal_v0_24__pxrReserved__9TfWeakPtrINS_8SdfLayerEEC2ERKS2_.exit8, label %15

15:                                               ; preds = %_ZN32pxrInternal_v0_24__pxrReserved__9TfWeakPtrINS_8SdfLayerEEC2ERKS2_.exit
  %16 = getelementptr inbounds nuw i8, ptr %.pre, i64 8
  %17 = atomicrmw add ptr %16, i32 1 monotonic, align 4
  br label %_ZN32pxrInternal_v0_24__pxrReserved__9TfWeakPtrINS_8SdfLayerEEC2ERKS2_.exit8

_ZN32pxrInternal_v0_24__pxrReserved__9TfWeakPtrINS_8SdfLayerEEC2ERKS2_.exit8: ; preds = %_ZN32pxrInternal_v0_24__pxrReserved__9TfWeakPtrINS_8SdfLayerEEC2ERKS2_.exit.thread, %15, %_ZN32pxrInternal_v0_24__pxrReserved__9TfWeakPtrINS_8SdfLayerEEC2ERKS2_.exit
  %18 = phi ptr [ %10, %_ZN32pxrInternal_v0_24__pxrReserved__9TfWeakPtrINS_8SdfLayerEEC2ERKS2_.exit.thread ], [ %14, %15 ], [ %14, %_ZN32pxrInternal_v0_24__pxrReserved__9TfWeakPtrINS_8SdfLayerEEC2ERKS2_.exit ]
  %19 = getelementptr inbounds nuw i8, ptr %0, i64 16
  invoke fastcc void @_ZN32pxrInternal_v0_24__pxrReserved__L22_ComposeMappingForNodeENS_9TfWeakPtrINS_8SdfLayerEEERKNS_10PcpNodeRefE(ptr dead_on_unwind noalias writable align 8 %19, ptr noundef %4, ptr noundef nonnull align 8 dereferenceable(16) %2)
          to label %20 unwind label %29

20:                                               ; preds = %_ZN32pxrInternal_v0_24__pxrReserved__9TfWeakPtrINS_8SdfLayerEEC2ERKS2_.exit8
  %21 = load ptr, ptr %18, align 8
  %.not.i.i.i.i9 = icmp eq ptr %21, null
  br i1 %.not.i.i.i.i9, label %_ZN32pxrInternal_v0_24__pxrReserved__9TfWeakPtrINS_8SdfLayerEED2Ev.exit, label %_ZN32pxrInternal_v0_24__pxrReserved__17Tf_RefPtr_Counter9RemoveRefEPKNS_9TfRefBaseE.exit.i.i.i

_ZN32pxrInternal_v0_24__pxrReserved__17Tf_RefPtr_Counter9RemoveRefEPKNS_9TfRefBaseE.exit.i.i.i: ; preds = %20
  %22 = getelementptr inbounds nuw i8, ptr %21, i64 8
  %23 = atomicrmw sub ptr %22, i32 1 release, align 4
  %24 = icmp eq i32 %23, 1
  br i1 %24, label %25, label %_ZN32pxrInternal_v0_24__pxrReserved__9TfWeakPtrINS_8SdfLayerEED2Ev.exit

25:                                               ; preds = %_ZN32pxrInternal_v0_24__pxrReserved__17Tf_RefPtr_Counter9RemoveRefEPKNS_9TfRefBaseE.exit.i.i.i
  %26 = load ptr, ptr %21, align 8
  %27 = getelementptr inbounds nuw i8, ptr %26, i64 8
  %28 = load ptr, ptr %27, align 8
  call void %28(ptr noundef nonnull align 8 dereferenceable(12) %21) #14
  br label %_ZN32pxrInternal_v0_24__pxrReserved__9TfWeakPtrINS_8SdfLayerEED2Ev.exit

_ZN32pxrInternal_v0_24__pxrReserved__9TfWeakPtrINS_8SdfLayerEED2Ev.exit: ; preds = %20, %_ZN32pxrInternal_v0_24__pxrReserved__17Tf_RefPtr_Counter9RemoveRefEPKNS_9TfRefBaseE.exit.i.i.i, %25
  ret void

29:                                               ; preds = %_ZN32pxrInternal_v0_24__pxrReserved__9TfWeakPtrINS_8SdfLayerEEC2ERKS2_.exit8
  %30 = landingpad { ptr, i32 }
          cleanup
  %31 = load ptr, ptr %18, align 8
  %.not.i.i.i.i10 = icmp eq ptr %31, null
  br i1 %.not.i.i.i.i10, label %_ZN32pxrInternal_v0_24__pxrReserved__9TfWeakPtrINS_8SdfLayerEED2Ev.exit12, label %_ZN32pxrInternal_v0_24__pxrReserved__17Tf_RefPtr_Counter9RemoveRefEPKNS_9TfRefBaseE.exit.i.i.i11

_ZN32pxrInternal_v0_24__pxrReserved__17Tf_RefPtr_Counter9RemoveRefEPKNS_9TfRefBaseE.exit.i.i.i11: ; preds = %29
  %32 = getelementptr inbounds nuw i8, ptr %31, i64 8
  %33 = atomicrmw sub ptr %32, i32 1 release, align 4
  %34 = icmp eq i32 %33, 1
  br i1 %34, label %35, label %_ZN32pxrInternal_v0_24__pxrReserved__9TfWeakPtrINS_8SdfLayerEED2Ev.exit12

35:                                               ; preds = %_ZN32pxrInternal_v0_24__pxrReserved__17Tf_RefPtr_Counter9RemoveRefEPKNS_9TfRefBaseE.exit.i.i.i11
  %36 = load ptr, ptr %31, align 8
  %37 = getelementptr inbounds nuw i8, ptr %36, i64 8
  %38 = load ptr, ptr %37, align 8
  call void %38(ptr noundef nonnull align 8 dereferenceable(12) %31) #14
  br label %_ZN32pxrInternal_v0_24__pxrReserved__9TfWeakPtrINS_8SdfLayerEED2Ev.exit12

_ZN32pxrInternal_v0_24__pxrReserved__9TfWeakPtrINS_8SdfLayerEED2Ev.exit12: ; preds = %35, %_ZN32pxrInternal_v0_24__pxrReserved__17Tf_RefPtr_Counter9RemoveRefEPKNS_9TfRefBaseE.exit.i.i.i11, %29
  %39 = load ptr, ptr %6, align 8
  %.not.i.i.i.i13 = icmp eq ptr %39, null
  br i1 %.not.i.i.i.i13, label %_ZN32pxrInternal_v0_24__pxrReserved__9TfWeakPtrINS_8SdfLayerEED2Ev.exit15, label %_ZN32pxrInternal_v0_24__pxrReserved__17Tf_RefPtr_Counter9RemoveRefEPKNS_9TfRefBaseE.exit.i.i.i14

_ZN32pxrInternal_v0_24__pxrReserved__17Tf_RefPtr_Counter9RemoveRefEPKNS_9TfRefBaseE.exit.i.i.i14: ; preds = %_ZN32pxrInternal_v0_24__pxrReserved__9TfWeakPtrINS_8SdfLayerEED2Ev.exit12
  %40 = getelementptr inbounds nuw i8, ptr %39, i64 8
  %41 = atomicrmw sub ptr %40, i32 1 release, align 4
  %42 = icmp eq i32 %41, 1
  br i1 %42, label %43, label %_ZN32pxrInternal_v0_24__pxrReserved__9TfWeakPtrINS_8SdfLayerEED2Ev.exit15

43:                                               ; preds = %_ZN32pxrInternal_v0_24__pxrReserved__17Tf_RefPtr_Counter9RemoveRefEPKNS_9TfRefBaseE.exit.i.i.i14
  %44 = load ptr, ptr %39, align 8
  %45 = getelementptr inbounds nuw i8, ptr %44, i64 8
  %46 = load ptr, ptr %45, align 8
  call void %46(ptr noundef nonnull align 8 dereferenceable(12) %39) #14
  br label %_ZN32pxrInternal_v0_24__pxrReserved__9TfWeakPtrINS_8SdfLayerEED2Ev.exit15

_ZN32pxrInternal_v0_24__pxrReserved__9TfWeakPtrINS_8SdfLayerEED2Ev.exit15: ; preds = %_ZN32pxrInternal_v0_24__pxrReserved__9TfWeakPtrINS_8SdfLayerEED2Ev.exit12, %_ZN32pxrInternal_v0_24__pxrReserved__17Tf_RefPtr_Counter9RemoveRefEPKNS_9TfRefBaseE.exit.i.i.i14, %43
  resume { ptr, i32 } %30
}